#include <math.h>
#include <stdio.h>
#include <stdlib.h>
#include <string.h>

int main()
{
	int n;
	int a[100];
	int j,i;
	scanf("%d",&n);
	for(j=0;j<n;j++)
	{
		scanf("%d",&(a[j]));
	}
    for(j=n-1,i=0;j>-1;j--)
	{
		if(i<n-1)
		{
			printf("%d ",a[j]);
			i++;
		}
		if(i==n-1)
		{
			printf("%d",a[0]);
			i++;
		}
	}
    return 0;
}