; ModuleID = 'source-C-CXX/46/5113.c'
source_filename = "source-C-CXX/46/5113.c"
target datalayout = "e-m:e-p270:32:32-p271:32:32-p272:64:64-i64:64-f80:128-n8:16:32:64-S128"
target triple = "x86_64-pc-linux-gnu"

@.str = private unnamed_addr constant [3 x i8] c"%d\00", align 1
@.str.1 = private unnamed_addr constant [4 x i8] c"%d \00", align 1

; Function Attrs: nofree nounwind sspstrong uwtable
define dso_local i32 @main() local_unnamed_addr #0 {
  %1 = alloca i32, align 4
  %2 = alloca [100 x i32], align 16
  %3 = bitcast i32* %1 to i8*
  call void @llvm.lifetime.start.p0i8(i64 4, i8* nonnull %3) #3
  %4 = bitcast [100 x i32]* %2 to i8*
  call void @llvm.lifetime.start.p0i8(i64 400, i8* nonnull %4) #3
  %5 = call i32 (i8*, ...) @__isoc99_scanf(i8* getelementptr inbounds ([3 x i8], [3 x i8]* @.str, i64 0, i64 0), i32* nonnull %1)
  %6 = load i32, i32* %1, align 4, !tbaa !5
  %7 = icmp sgt i32 %6, 0
  br i1 %7, label %13, label %51

8:                                                ; preds = %13
  %9 = getelementptr inbounds [100 x i32], [100 x i32]* %2, i64 0, i64 0
  %10 = icmp sgt i32 %18, 0
  br i1 %10, label %11, label %51

11:                                               ; preds = %8
  %12 = zext i32 %18 to i64
  br label %21

13:                                               ; preds = %0, %13
  %14 = phi i64 [ %17, %13 ], [ 0, %0 ]
  %15 = getelementptr inbounds [100 x i32], [100 x i32]* %2, i64 0, i64 %14
  %16 = call i32 (i8*, ...) @__isoc99_scanf(i8* getelementptr inbounds ([3 x i8], [3 x i8]* @.str, i64 0, i64 0), i32* nonnull %15)
  %17 = add nuw nsw i64 %14, 1
  %18 = load i32, i32* %1, align 4, !tbaa !5
  %19 = sext i32 %18 to i64
  %20 = icmp slt i64 %17, %19
  br i1 %20, label %13, label %8, !llvm.loop !9

21:                                               ; preds = %48, %11
  %22 = phi i32 [ %18, %11 ], [ %50, %48 ]
  %23 = phi i64 [ %12, %11 ], [ %49, %48 ]
  %24 = phi i32 [ %18, %11 ], [ %26, %48 ]
  %25 = phi i32 [ 0, %11 ], [ %46, %48 ]
  %26 = add nsw i32 %24, -1
  %27 = add nsw i32 %22, -1
  %28 = icmp slt i32 %25, %27
  br i1 %28, label %29, label %37

29:                                               ; preds = %21
  %30 = zext i32 %26 to i64
  %31 = getelementptr inbounds [100 x i32], [100 x i32]* %2, i64 0, i64 %30
  %32 = load i32, i32* %31, align 4, !tbaa !5
  %33 = call i32 (i8*, ...) @printf(i8* nonnull dereferenceable(1) getelementptr inbounds ([4 x i8], [4 x i8]* @.str.1, i64 0, i64 0), i32 %32)
  %34 = add nsw i32 %25, 1
  %35 = load i32, i32* %1, align 4, !tbaa !5
  %36 = add nsw i32 %35, -1
  br label %37

37:                                               ; preds = %29, %21
  %38 = phi i32 [ %36, %29 ], [ %27, %21 ]
  %39 = phi i32 [ %34, %29 ], [ %25, %21 ]
  %40 = icmp eq i32 %39, %38
  br i1 %40, label %41, label %45

41:                                               ; preds = %37
  %42 = load i32, i32* %9, align 16, !tbaa !5
  %43 = call i32 (i8*, ...) @printf(i8* nonnull dereferenceable(1) getelementptr inbounds ([3 x i8], [3 x i8]* @.str, i64 0, i64 0), i32 %42)
  %44 = add nsw i32 %39, 1
  br label %45

45:                                               ; preds = %37, %41
  %46 = phi i32 [ %44, %41 ], [ %39, %37 ]
  %47 = icmp sgt i64 %23, 1
  br i1 %47, label %48, label %51, !llvm.loop !11

48:                                               ; preds = %45
  %49 = add nsw i64 %23, -1
  %50 = load i32, i32* %1, align 4, !tbaa !5
  br label %21

51:                                               ; preds = %45, %0, %8
  call void @llvm.lifetime.end.p0i8(i64 400, i8* nonnull %4) #3
  call void @llvm.lifetime.end.p0i8(i64 4, i8* nonnull %3) #3
  ret i32 0
}

; Function Attrs: argmemonly mustprogress nofree nosync nounwind willreturn
declare void @llvm.lifetime.start.p0i8(i64 immarg, i8* nocapture) #1

; Function Attrs: nofree nounwind
declare noundef i32 @__isoc99_scanf(i8* nocapture noundef readonly, ...) local_unnamed_addr #2

; Function Attrs: nofree nounwind
declare noundef i32 @printf(i8* nocapture noundef readonly, ...) local_unnamed_addr #2

; Function Attrs: argmemonly mustprogress nofree nosync nounwind willreturn
declare void @llvm.lifetime.end.p0i8(i64 immarg, i8* nocapture) #1


!llvm.module.flags = !{!0, !1, !2, !3}
!llvm.ident = !{!4}

!0 = !{i32 1, !"wchar_size", i32 4}
!1 = !{i32 7, !"PIC Level", i32 2}
!2 = !{i32 7, !"PIE Level", i32 2}
!3 = !{i32 7, !"uwtable", i32 1}
!4 = !{!"clang version 13.0.0"}
!5 = !{!6, !6, i64 0}
!6 = !{!"int", !7, i64 0}
!7 = !{!"omnipotent char", !8, i64 0}
!8 = !{!"Simple C/C++ TBAA"}
!9 = distinct !{!9, !10}
!10 = !{!"llvm.loop.mustprogress"}
!11 = distinct !{!11, !10}
